; Function Attrs: inlinehint nounwind uwtable
define internal fastcc range(i32 -32, 1) i32 @pmix_bfrops_base_tma_copy_pstats(ptr noundef nonnull writeonly captures(none) %0, ptr noundef readonly captures(none) %1, ptr noundef %2) unnamed_addr #4 {
  %.not.i.i = icmp eq ptr %2, null
  br i1 %.not.i.i, label %7, label %4

4:                                                ; preds = %3
  %5 = load ptr, ptr %2, align 8, !tbaa !39
  %6 = tail call ptr %5(ptr noundef nonnull %2, i64 noundef 352) #17
  br label %pmix_tma_malloc.exit.i

7:                                                ; preds = %3
  %8 = tail call noalias dereferenceable_or_null(352) ptr @malloc(i64 noundef 352) #18
  br label %pmix_tma_malloc.exit.i

pmix_tma_malloc.exit.i:                           ; preds = %7, %4
  %.0.i.i = phi ptr [ %6, %4 ], [ %8, %7 ]
  %.not.i = icmp eq ptr %.0.i.i, null
  br i1 %.not.i, label %pmix_bfrops_base_tma_proc_stats_create.exit.thread, label %9, !prof !29

9:                                                ; preds = %pmix_tma_malloc.exit.i
  tail call void @llvm.memset.p0.i64(ptr noundef nonnull align 8 dereferenceable(352) %.0.i.i, i8 0, i64 352, i1 false)
  store ptr %.0.i.i, ptr %0, align 8, !tbaa !305
  %10 = load ptr, ptr %1, align 8, !tbaa !120
  %.not.i8 = icmp eq ptr %10, null
  br i1 %.not.i8, label %18, label %11

11:                                               ; preds = %9
  br i1 %.not.i.i, label %16, label %12

12:                                               ; preds = %11
  %13 = getelementptr inbounds nuw i8, ptr %2, i64 24
  %14 = load ptr, ptr %13, align 8, !tbaa !194
  %15 = tail call ptr %14(ptr noundef nonnull %2, ptr noundef nonnull %10) #17
  br label %pmix_tma_strdup.exit.i

16:                                               ; preds = %11
  %17 = tail call noalias ptr @strdup(ptr noundef nonnull %10) #17
  br label %pmix_tma_strdup.exit.i

pmix_tma_strdup.exit.i:                           ; preds = %16, %12
  %.0.i.i10 = phi ptr [ %15, %12 ], [ %17, %16 ]
  store ptr %.0.i.i10, ptr %.0.i.i, align 8, !tbaa !120
  br label %18

18:                                               ; preds = %pmix_tma_strdup.exit.i, %9
  %19 = getelementptr inbounds nuw i8, ptr %.0.i.i, i64 8
  %20 = getelementptr inbounds nuw i8, ptr %1, i64 8
  tail call void @llvm.memcpy.p0.p0.i64(ptr noundef nonnull align 8 dereferenceable(260) %19, ptr noundef nonnull readonly align 8 dereferenceable(260) %20, i64 260, i1 false)
  %21 = getelementptr inbounds nuw i8, ptr %1, i64 268
  %22 = load i32, ptr %21, align 4, !tbaa !256
  %23 = getelementptr inbounds nuw i8, ptr %.0.i.i, i64 268
  store i32 %22, ptr %23, align 4, !tbaa !256
  %24 = getelementptr inbounds nuw i8, ptr %1, i64 272
  %25 = load ptr, ptr %24, align 8, !tbaa !124
  %.not35.i = icmp eq ptr %25, null
  br i1 %.not35.i, label %pmix_bfrops_base_tma_populate_pstats.exit, label %26

26:                                               ; preds = %18
  br i1 %.not.i.i, label %31, label %27

27:                                               ; preds = %26
  %28 = getelementptr inbounds nuw i8, ptr %2, i64 24
  %29 = load ptr, ptr %28, align 8, !tbaa !194
  %30 = tail call ptr %29(ptr noundef nonnull %2, ptr noundef nonnull %25) #17
  br label %pmix_tma_strdup.exit38.i

31:                                               ; preds = %26
  %32 = tail call noalias ptr @strdup(ptr noundef nonnull %25) #17
  br label %pmix_tma_strdup.exit38.i

pmix_tma_strdup.exit38.i:                         ; preds = %31, %27
  %.0.i37.i = phi ptr [ %30, %27 ], [ %32, %31 ]
  %33 = getelementptr inbounds nuw i8, ptr %.0.i.i, i64 272
  store ptr %.0.i37.i, ptr %33, align 8, !tbaa !124
  br label %pmix_bfrops_base_tma_populate_pstats.exit

pmix_bfrops_base_tma_populate_pstats.exit:        ; preds = %18, %pmix_tma_strdup.exit38.i
  %34 = getelementptr inbounds nuw i8, ptr %1, i64 280
  %35 = load i8, ptr %34, align 8, !tbaa !257
  %36 = getelementptr inbounds nuw i8, ptr %.0.i.i, i64 280
  store i8 %35, ptr %36, align 8, !tbaa !257
  %37 = getelementptr inbounds nuw i8, ptr %.0.i.i, i64 288
  %38 = getelementptr inbounds nuw i8, ptr %1, i64 288
  tail call void @llvm.memcpy.p0.p0.i64(ptr noundef nonnull align 8 dereferenceable(16) %37, ptr noundef nonnull readonly align 8 dereferenceable(16) %38, i64 16, i1 false), !tbaa.struct !258
  %39 = getelementptr inbounds nuw i8, ptr %1, i64 308
  %40 = load i32, ptr %39, align 4, !tbaa !260
  %41 = getelementptr inbounds nuw i8, ptr %.0.i.i, i64 308
  store i32 %40, ptr %41, align 4, !tbaa !260
  %42 = getelementptr inbounds nuw i8, ptr %1, i64 312
  %43 = load i16, ptr %42, align 8, !tbaa !261
  %44 = getelementptr inbounds nuw i8, ptr %.0.i.i, i64 312
  store i16 %43, ptr %44, align 8, !tbaa !261
  %45 = getelementptr inbounds nuw i8, ptr %1, i64 316
  %46 = load float, ptr %45, align 4, !tbaa !262
  %47 = getelementptr inbounds nuw i8, ptr %.0.i.i, i64 316
  store float %46, ptr %47, align 4, !tbaa !262
  %48 = getelementptr inbounds nuw i8, ptr %1, i64 320
  %49 = load float, ptr %48, align 8, !tbaa !263
  %50 = getelementptr inbounds nuw i8, ptr %.0.i.i, i64 320
  store float %49, ptr %50, align 8, !tbaa !263
  %51 = getelementptr inbounds nuw i8, ptr %1, i64 324
  %52 = load float, ptr %51, align 4, !tbaa !264
  %53 = getelementptr inbounds nuw i8, ptr %.0.i.i, i64 324
  store float %52, ptr %53, align 4, !tbaa !264
  %54 = getelementptr inbounds nuw i8, ptr %1, i64 328
  %55 = load float, ptr %54, align 8, !tbaa !265
  %56 = getelementptr inbounds nuw i8, ptr %.0.i.i, i64 328
  store float %55, ptr %56, align 8, !tbaa !265
  %57 = getelementptr inbounds nuw i8, ptr %1, i64 332
  %58 = load i16, ptr %57, align 4, !tbaa !266
  %59 = getelementptr inbounds nuw i8, ptr %.0.i.i, i64 332
  store i16 %58, ptr %59, align 4, !tbaa !266
  %60 = getelementptr inbounds nuw i8, ptr %1, i64 336
  %61 = load i64, ptr %60, align 8, !tbaa !267
  %62 = getelementptr inbounds nuw i8, ptr %.0.i.i, i64 336
  store i64 %61, ptr %62, align 8, !tbaa !267
  %63 = getelementptr inbounds nuw i8, ptr %1, i64 344
  %64 = load i64, ptr %63, align 8, !tbaa !268
  %65 = getelementptr inbounds nuw i8, ptr %.0.i.i, i64 344
  store i64 %64, ptr %65, align 8, !tbaa !268
  br label %pmix_bfrops_base_tma_proc_stats_create.exit.thread

pmix_bfrops_base_tma_proc_stats_create.exit.thread: ; preds = %pmix_tma_malloc.exit.i, %pmix_bfrops_base_tma_populate_pstats.exit
  %.0 = phi i32 [ 0, %pmix_bfrops_base_tma_populate_pstats.exit ], [ -32, %pmix_tma_malloc.exit.i ]
  ret i32 %.0
}